; Function Attrs: inlinehint nofree norecurse nosync nounwind memory(argmem: read) uwtable
define internal fastcc i64 @ZSTD_count_2segments(ptr noundef %0, ptr noundef %1, ptr noundef readnone captures(address) %2, ptr noundef %3, ptr noundef readonly captures(none) %4) unnamed_addr #4 {
  %6 = ptrtoint ptr %3 to i64
  %7 = ptrtoint ptr %1 to i64
  %8 = sub i64 %6, %7
  %9 = getelementptr inbounds i8, ptr %0, i64 %8
  %10 = icmp ult ptr %9, %2
  %. = select i1 %10, ptr %9, ptr %2
  %11 = getelementptr inbounds i8, ptr %., i64 -7
  %12 = icmp ult ptr %0, %11
  br i1 %12, label %13, label %.loopexit.i

13:                                               ; preds = %5
  %.val.i = load i64, ptr %1, align 1, !tbaa !24
  %.val60.i = load i64, ptr %0, align 1, !tbaa !24
  %.not.i = icmp eq i64 %.val.i, %.val60.i
  br i1 %.not.i, label %.preheader.i, label %14

14:                                               ; preds = %13
  %15 = xor i64 %.val60.i, %.val.i
  %16 = tail call range(i64 0, 65) i64 @llvm.cttz.i64(i64 range(i64 1, 0) %15, i1 true)
  %17 = lshr i64 %16, 3
  br label %ZSTD_count.exit

.preheader.i:                                     ; preds = %13, %19
  %.pn.i = phi ptr [ %.150.i, %19 ], [ %1, %13 ]
  %.pn67.i = phi ptr [ %.146.i, %19 ], [ %0, %13 ]
  %.146.i = getelementptr inbounds nuw i8, ptr %.pn67.i, i64 8
  %.150.i = getelementptr inbounds nuw i8, ptr %.pn.i, i64 8
  %18 = icmp ult ptr %.146.i, %11
  br i1 %18, label %19, label %.loopexit.i

19:                                               ; preds = %.preheader.i
  %.150.val.i = load i64, ptr %.150.i, align 1, !tbaa !24
  %.146.val.i = load i64, ptr %.146.i, align 1, !tbaa !24
  %.not59.i = icmp eq i64 %.150.val.i, %.146.val.i
  br i1 %.not59.i, label %.preheader.i, label %.thread63.i

.thread63.i:                                      ; preds = %19
  %20 = xor i64 %.146.val.i, %.150.val.i
  %21 = tail call range(i64 0, 65) i64 @llvm.cttz.i64(i64 range(i64 1, 0) %20, i1 true)
  %22 = lshr i64 %21, 3
  %23 = getelementptr inbounds nuw i8, ptr %.146.i, i64 %22
  %24 = ptrtoint ptr %23 to i64
  %25 = ptrtoint ptr %0 to i64
  %26 = sub i64 %24, %25
  br label %ZSTD_count.exit

.loopexit.i:                                      ; preds = %.preheader.i, %5
  %.049.i = phi ptr [ %1, %5 ], [ %.150.i, %.preheader.i ]
  %.045.i = phi ptr [ %0, %5 ], [ %.146.i, %.preheader.i ]
  %27 = getelementptr inbounds i8, ptr %., i64 -3
  %28 = icmp ult ptr %.045.i, %27
  br i1 %28, label %29, label %34

29:                                               ; preds = %.loopexit.i
  %.049.val.i = load i32, ptr %.049.i, align 1, !tbaa !23
  %.045.val.i = load i32, ptr %.045.i, align 1, !tbaa !23
  %30 = icmp eq i32 %.049.val.i, %.045.val.i
  br i1 %30, label %31, label %34

31:                                               ; preds = %29
  %32 = getelementptr inbounds nuw i8, ptr %.045.i, i64 4
  %33 = getelementptr inbounds nuw i8, ptr %.049.i, i64 4
  br label %34

34:                                               ; preds = %31, %29, %.loopexit.i
  %.352.i = phi ptr [ %33, %31 ], [ %.049.i, %29 ], [ %.049.i, %.loopexit.i ]
  %.348.i = phi ptr [ %32, %31 ], [ %.045.i, %29 ], [ %.045.i, %.loopexit.i ]
  %35 = getelementptr inbounds i8, ptr %., i64 -1
  %36 = icmp ult ptr %.348.i, %35
  br i1 %36, label %37, label %42

37:                                               ; preds = %34
  %.352.val.i = load i16, ptr %.352.i, align 1, !tbaa !45
  %.348.val.i = load i16, ptr %.348.i, align 1, !tbaa !45
  %38 = icmp eq i16 %.352.val.i, %.348.val.i
  br i1 %38, label %39, label %42

39:                                               ; preds = %37
  %40 = getelementptr inbounds nuw i8, ptr %.348.i, i64 2
  %41 = getelementptr inbounds nuw i8, ptr %.352.i, i64 2
  br label %42

42:                                               ; preds = %39, %37, %34
  %.453.i = phi ptr [ %41, %39 ], [ %.352.i, %37 ], [ %.352.i, %34 ]
  %.4.i = phi ptr [ %40, %39 ], [ %.348.i, %37 ], [ %.348.i, %34 ]
  %43 = icmp ult ptr %.4.i, %.
  br i1 %43, label %44, label %48

44:                                               ; preds = %42
  %45 = load i8, ptr %.453.i, align 1, !tbaa !38
  %46 = load i8, ptr %.4.i, align 1, !tbaa !38
  %47 = icmp eq i8 %45, %46
  %spec.select.idx.i = zext i1 %47 to i64
  %spec.select.i = getelementptr inbounds nuw i8, ptr %.4.i, i64 %spec.select.idx.i
  br label %48

48:                                               ; preds = %44, %42
  %.5.i = phi ptr [ %.4.i, %42 ], [ %spec.select.i, %44 ]
  %49 = ptrtoint ptr %.5.i to i64
  %50 = ptrtoint ptr %0 to i64
  %51 = sub i64 %49, %50
  br label %ZSTD_count.exit

ZSTD_count.exit:                                  ; preds = %14, %.thread63.i, %48
  %.1.i = phi i64 [ %51, %48 ], [ %17, %14 ], [ %26, %.thread63.i ]
  %52 = getelementptr inbounds nuw i8, ptr %1, i64 %.1.i
  %.not = icmp eq ptr %52, %3
  br i1 %.not, label %53, label %97

53:                                               ; preds = %ZSTD_count.exit
  %54 = getelementptr inbounds nuw i8, ptr %0, i64 %.1.i
  %55 = getelementptr inbounds i8, ptr %2, i64 -7
  %56 = icmp ult ptr %54, %55
  br i1 %56, label %57, label %.loopexit.i22

57:                                               ; preds = %53
  %.val.i37 = load i64, ptr %4, align 1, !tbaa !24
  %.val60.i38 = load i64, ptr %54, align 1, !tbaa !24
  %.not.i39 = icmp eq i64 %.val.i37, %.val60.i38
  br i1 %.not.i39, label %.preheader.i40, label %58

58:                                               ; preds = %57
  %59 = xor i64 %.val60.i38, %.val.i37
  %60 = tail call range(i64 0, 65) i64 @llvm.cttz.i64(i64 range(i64 1, 0) %59, i1 true)
  %61 = lshr i64 %60, 3
  br label %ZSTD_count.exit49

.preheader.i40:                                   ; preds = %57, %63
  %.pn.i41 = phi ptr [ %.150.i44, %63 ], [ %4, %57 ]
  %.pn67.i42 = phi ptr [ %.146.i43, %63 ], [ %54, %57 ]
  %.146.i43 = getelementptr inbounds nuw i8, ptr %.pn67.i42, i64 8
  %.150.i44 = getelementptr inbounds nuw i8, ptr %.pn.i41, i64 8
  %62 = icmp ult ptr %.146.i43, %55
  br i1 %62, label %63, label %.loopexit.i22

63:                                               ; preds = %.preheader.i40
  %.150.val.i45 = load i64, ptr %.150.i44, align 1, !tbaa !24
  %.146.val.i46 = load i64, ptr %.146.i43, align 1, !tbaa !24
  %.not59.i47 = icmp eq i64 %.150.val.i45, %.146.val.i46
  br i1 %.not59.i47, label %.preheader.i40, label %.thread63.i48

.thread63.i48:                                    ; preds = %63
  %64 = xor i64 %.146.val.i46, %.150.val.i45
  %65 = tail call range(i64 0, 65) i64 @llvm.cttz.i64(i64 range(i64 1, 0) %64, i1 true)
  %66 = lshr i64 %65, 3
  %67 = getelementptr inbounds nuw i8, ptr %.146.i43, i64 %66
  %68 = ptrtoint ptr %67 to i64
  %69 = ptrtoint ptr %54 to i64
  %70 = sub i64 %68, %69
  br label %ZSTD_count.exit49

.loopexit.i22:                                    ; preds = %.preheader.i40, %53
  %.049.i23 = phi ptr [ %4, %53 ], [ %.150.i44, %.preheader.i40 ]
  %.045.i24 = phi ptr [ %54, %53 ], [ %.146.i43, %.preheader.i40 ]
  %71 = getelementptr inbounds i8, ptr %2, i64 -3
  %72 = icmp ult ptr %.045.i24, %71
  br i1 %72, label %73, label %78

73:                                               ; preds = %.loopexit.i22
  %.049.val.i35 = load i32, ptr %.049.i23, align 1, !tbaa !23
  %.045.val.i36 = load i32, ptr %.045.i24, align 1, !tbaa !23
  %74 = icmp eq i32 %.049.val.i35, %.045.val.i36
  br i1 %74, label %75, label %78

75:                                               ; preds = %73
  %76 = getelementptr inbounds nuw i8, ptr %.045.i24, i64 4
  %77 = getelementptr inbounds nuw i8, ptr %.049.i23, i64 4
  br label %78

78:                                               ; preds = %75, %73, %.loopexit.i22
  %.352.i25 = phi ptr [ %77, %75 ], [ %.049.i23, %73 ], [ %.049.i23, %.loopexit.i22 ]
  %.348.i26 = phi ptr [ %76, %75 ], [ %.045.i24, %73 ], [ %.045.i24, %.loopexit.i22 ]
  %79 = getelementptr inbounds i8, ptr %2, i64 -1
  %80 = icmp ult ptr %.348.i26, %79
  br i1 %80, label %81, label %86

81:                                               ; preds = %78
  %.352.val.i33 = load i16, ptr %.352.i25, align 1, !tbaa !45
  %.348.val.i34 = load i16, ptr %.348.i26, align 1, !tbaa !45
  %82 = icmp eq i16 %.352.val.i33, %.348.val.i34
  br i1 %82, label %83, label %86

83:                                               ; preds = %81
  %84 = getelementptr inbounds nuw i8, ptr %.348.i26, i64 2
  %85 = getelementptr inbounds nuw i8, ptr %.352.i25, i64 2
  br label %86

86:                                               ; preds = %83, %81, %78
  %.453.i27 = phi ptr [ %85, %83 ], [ %.352.i25, %81 ], [ %.352.i25, %78 ]
  %.4.i28 = phi ptr [ %84, %83 ], [ %.348.i26, %81 ], [ %.348.i26, %78 ]
  %87 = icmp ult ptr %.4.i28, %2
  br i1 %87, label %88, label %92

88:                                               ; preds = %86
  %89 = load i8, ptr %.453.i27, align 1, !tbaa !38
  %90 = load i8, ptr %.4.i28, align 1, !tbaa !38
  %91 = icmp eq i8 %89, %90
  %spec.select.idx.i31 = zext i1 %91 to i64
  %spec.select.i32 = getelementptr inbounds nuw i8, ptr %.4.i28, i64 %spec.select.idx.i31
  br label %92

92:                                               ; preds = %88, %86
  %.5.i29 = phi ptr [ %.4.i28, %86 ], [ %spec.select.i32, %88 ]
  %93 = ptrtoint ptr %.5.i29 to i64
  %94 = ptrtoint ptr %54 to i64
  %95 = sub i64 %93, %94
  br label %ZSTD_count.exit49

ZSTD_count.exit49:                                ; preds = %58, %.thread63.i48, %92
  %.1.i30 = phi i64 [ %95, %92 ], [ %61, %58 ], [ %70, %.thread63.i48 ]
  %96 = add i64 %.1.i30, %.1.i
  br label %97

97:                                               ; preds = %ZSTD_count.exit, %ZSTD_count.exit49
  %.0 = phi i64 [ %96, %ZSTD_count.exit49 ], [ %.1.i, %ZSTD_count.exit ]
  ret i64 %.0
}